; Function Attrs: nounwind uwtable
define noalias noundef ptr @Acb_ObjMarkTfo(ptr noundef captures(none) %0, ptr noundef readonly captures(none) %1, i32 noundef %2, i32 noundef %3, i32 noundef %4) local_unnamed_addr #0 {
  %6 = tail call noalias dereferenceable_or_null(16) ptr @malloc(i64 noundef 16) #24
  %7 = getelementptr inbounds nuw i8, ptr %6, i64 4
  store i32 1000, ptr %6, align 8, !tbaa !31
  %8 = tail call noalias dereferenceable_or_null(4000) ptr @malloc(i64 noundef 4000) #24
  %9 = getelementptr inbounds nuw i8, ptr %6, i64 8
  store ptr %8, ptr %9, align 8, !tbaa !18
  %10 = getelementptr i8, ptr %0, i64 260
  %.val.i = load i32, ptr %10, align 4, !tbaa !15
  %11 = icmp slt i32 %.val.i, 1
  br i1 %11, label %12, label %Vec_IntPush.exit

12:                                               ; preds = %5
  %13 = getelementptr inbounds nuw i8, ptr %0, i64 256
  %14 = getelementptr inbounds nuw i8, ptr %0, i64 112
  %.val.i.i = load i32, ptr %14, align 8, !tbaa !12
  %15 = load i32, ptr %13, align 8, !tbaa !31
  %.not.i.i.i.i = icmp slt i32 %15, %.val.i.i
  br i1 %.not.i.i.i.i, label %16, label %Vec_IntGrow.exit.i.i.i

16:                                               ; preds = %12
  %17 = getelementptr inbounds nuw i8, ptr %0, i64 264
  %18 = load ptr, ptr %17, align 8, !tbaa !18
  %.not9.i.i.i.i = icmp eq ptr %18, null
  %19 = sext i32 %.val.i.i to i64
  %20 = shl nsw i64 %19, 2
  br i1 %.not9.i.i.i.i, label %23, label %21

21:                                               ; preds = %16
  %22 = tail call ptr @realloc(ptr noundef nonnull %18, i64 noundef %20) #23
  br label %25

23:                                               ; preds = %16
  %24 = tail call noalias ptr @malloc(i64 noundef %20) #24
  br label %25

25:                                               ; preds = %23, %21
  %26 = phi ptr [ %22, %21 ], [ %24, %23 ]
  store ptr %26, ptr %17, align 8, !tbaa !18
  store i32 %.val.i.i, ptr %13, align 8, !tbaa !31
  br label %Vec_IntGrow.exit.i.i.i

Vec_IntGrow.exit.i.i.i:                           ; preds = %25, %12
  %27 = icmp sgt i32 %.val.i.i, 0
  br i1 %27, label %.lr.ph.i.i.i, label %Acb_NtkCleanObjTravs.exit.i

.lr.ph.i.i.i:                                     ; preds = %Vec_IntGrow.exit.i.i.i
  %28 = getelementptr inbounds nuw i8, ptr %0, i64 264
  %29 = load ptr, ptr %28, align 8, !tbaa !18
  %wide.trip.count.i.i.i = zext nneg i32 %.val.i.i to i64
  %30 = shl nuw nsw i64 %wide.trip.count.i.i.i, 2
  tail call void @llvm.memset.p0.i64(ptr align 4 %29, i8 0, i64 %30, i1 false), !tbaa !19
  br label %Acb_NtkCleanObjTravs.exit.i

Acb_NtkCleanObjTravs.exit.i:                      ; preds = %.lr.ph.i.i.i, %Vec_IntGrow.exit.i.i.i
  store i32 %.val.i.i, ptr %10, align 4, !tbaa !15
  br label %Vec_IntPush.exit

Vec_IntPush.exit:                                 ; preds = %5, %Acb_NtkCleanObjTravs.exit.i
  %31 = getelementptr inbounds nuw i8, ptr %0, i64 96
  %32 = load i32, ptr %31, align 8, !tbaa !73
  %33 = add nsw i32 %32, 1
  store i32 %33, ptr %31, align 8, !tbaa !73
  %34 = getelementptr i8, ptr %0, i64 264
  %.val17 = load ptr, ptr %34, align 8, !tbaa !18
  %35 = sext i32 %2 to i64
  %36 = getelementptr inbounds i32, ptr %.val17, i64 %35
  store i32 %33, ptr %36, align 4, !tbaa !19
  store i32 1, ptr %7, align 4, !tbaa !15
  store i32 %2, ptr %8, align 4, !tbaa !19
  %37 = getelementptr i8, ptr %1, i64 4
  %.val18 = load i32, ptr %37, align 4, !tbaa !15
  %38 = icmp sgt i32 %.val18, 0
  br i1 %38, label %.lr.ph, label %.critedge

.lr.ph:                                           ; preds = %Vec_IntPush.exit
  %39 = getelementptr i8, ptr %1, i64 8
  br label %40

40:                                               ; preds = %.lr.ph, %40
  %indvars.iv = phi i64 [ 0, %.lr.ph ], [ %indvars.iv.next, %40 ]
  %.val15 = load ptr, ptr %39, align 8, !tbaa !18
  %41 = getelementptr inbounds nuw i32, ptr %.val15, i64 %indvars.iv
  %42 = load i32, ptr %41, align 4, !tbaa !19
  tail call void @Acb_ObjMarkTfo_rec(ptr noundef %0, i32 noundef %42, i32 noundef %3, i32 noundef %4, ptr noundef nonnull %6)
  %indvars.iv.next = add nuw nsw i64 %indvars.iv, 1
  %.val = load i32, ptr %37, align 4, !tbaa !15
  %43 = sext i32 %.val to i64
  %44 = icmp slt i64 %indvars.iv.next, %43
  br i1 %44, label %40, label %.critedge, !llvm.loop !82

.critedge:                                        ; preds = %40, %Vec_IntPush.exit
  ret ptr %6
}